target datalayout = "e-m:e-p270:32:32-p271:32:32-p272:64:64-i64:64-i128:128-f80:128-n8:16:32:64-S128"
target triple = "x86_64-pc-linux-gnu"

%struct.TmToChar = type { %struct.fmt_tm, i32, ptr }
%struct.fmt_tm = type { i32, i32, i64, i32, i32, i32, i32, i32, i64 }
%struct.pg_tm = type { i32, i32, i32, i32, i32, i32, i32, i32, i32, i64, ptr }
%struct.FunctionCallInfoBaseData = type { ptr, ptr, ptr, i32, i8, i16, [0 x %struct.NullableDatum] }
%struct.NullableDatum = type { i64, i8 }
%struct.varattrib_1b = type { i8, [0 x i8] }
%struct.varattrib_1b_e = type { i8, i8, [0 x i8] }
%struct.anon.1 = type { i32, [0 x i8] }

@.str.3 = private unnamed_addr constant [13 x i8] c"formatting.c\00", align 1
@.str.7 = private unnamed_addr constant [23 x i8] c"timestamp out of range\00", align 1
@__func__.timestamptz_to_char = private unnamed_addr constant [20 x i8] c"timestamptz_to_char\00", align 1

; Function Attrs: inlinehint nounwind uwtable
define internal i64 @DatumGetInt64(i64 noundef %0) #4 {
  %2 = alloca i64, align 8
  store i64 %0, ptr %2, align 8
  %3 = load i64, ptr %2, align 8
  ret i64 %3
}

; Function Attrs: inlinehint nounwind uwtable
define internal i64 @PointerGetDatum(ptr noundef %0) #4 {
  %2 = alloca ptr, align 8
  store ptr %0, ptr %2, align 8
  %3 = load ptr, ptr %2, align 8
  %4 = ptrtoint ptr %3 to i64
  ret i64 %4
}

; Function Attrs: inlinehint nounwind uwtable
define internal ptr @DatumGetPointer(i64 noundef %0) #4 {
  %2 = alloca i64, align 8
  store i64 %0, ptr %2, align 8
  %3 = load i64, ptr %2, align 8
  %4 = inttoptr i64 %3 to ptr
  ret ptr %4
}

; Function Attrs: inlinehint nounwind uwtable
define internal i64 @DatumGetTimestamp(i64 noundef %0) #4 {
  %2 = alloca i64, align 8
  store i64 %0, ptr %2, align 8
  %3 = load i64, ptr %2, align 8
  %4 = call i64 @DatumGetInt64(i64 noundef %3)
  ret i64 %4
}

; Function Attrs: nounwind uwtable
define dso_local i64 @timestamptz_to_char(ptr noundef %0) #0 {
  %2 = alloca i64, align 8
  %3 = alloca ptr, align 8
  %4 = alloca i64, align 8
  %5 = alloca ptr, align 8
  %6 = alloca ptr, align 8
  %7 = alloca %struct.TmToChar, align 8
  %8 = alloca i32, align 4
  %9 = alloca %struct.pg_tm, align 8
  %10 = alloca ptr, align 8
  %11 = alloca i32, align 4
  %12 = alloca i32, align 4
  store ptr %0, ptr %3, align 8
  call void @llvm.lifetime.start.p0(i64 8, ptr %4) #11
  %13 = load ptr, ptr %3, align 8
  %14 = getelementptr inbounds nuw %struct.FunctionCallInfoBaseData, ptr %13, i32 0, i32 6
  %15 = getelementptr inbounds [0 x %struct.NullableDatum], ptr %14, i64 0, i64 0
  %16 = getelementptr inbounds nuw %struct.NullableDatum, ptr %15, i32 0, i32 0
  %17 = load i64, ptr %16, align 8
  %18 = call i64 @DatumGetTimestamp(i64 noundef %17)
  store i64 %18, ptr %4, align 8
  call void @llvm.lifetime.start.p0(i64 8, ptr %5) #11
  %19 = load ptr, ptr %3, align 8
  %20 = getelementptr inbounds nuw %struct.FunctionCallInfoBaseData, ptr %19, i32 0, i32 6
  %21 = getelementptr inbounds [0 x %struct.NullableDatum], ptr %20, i64 0, i64 1
  %22 = getelementptr inbounds nuw %struct.NullableDatum, ptr %21, i32 0, i32 0
  %23 = load i64, ptr %22, align 8
  %24 = call ptr @DatumGetPointer(i64 noundef %23)
  %25 = call ptr @pg_detoast_datum_packed(ptr noundef %24)
  store ptr %25, ptr %5, align 8
  call void @llvm.lifetime.start.p0(i64 8, ptr %6) #11
  call void @llvm.lifetime.start.p0(i64 64, ptr %7) #11
  call void @llvm.lifetime.start.p0(i64 4, ptr %8) #11
  call void @llvm.lifetime.start.p0(i64 56, ptr %9) #11
  call void @llvm.lifetime.start.p0(i64 8, ptr %10) #11
  call void @llvm.lifetime.start.p0(i64 4, ptr %11) #11
  %26 = load ptr, ptr %5, align 8
  %27 = getelementptr inbounds nuw %struct.varattrib_1b, ptr %26, i32 0, i32 0
  %28 = load i8, ptr %27, align 1
  %29 = zext i8 %28 to i32
  %30 = icmp eq i32 %29, 1
  br i1 %30, label %31, label %59

31:                                               ; preds = %1
  %32 = load ptr, ptr %5, align 8
  %33 = getelementptr inbounds nuw %struct.varattrib_1b_e, ptr %32, i32 0, i32 1
  %34 = load i8, ptr %33, align 1
  %35 = zext i8 %34 to i32
  %36 = icmp eq i32 %35, 1
  br i1 %36, label %37, label %38

37:                                               ; preds = %31
  br label %55

38:                                               ; preds = %31
  %39 = load ptr, ptr %5, align 8
  %40 = getelementptr inbounds nuw %struct.varattrib_1b_e, ptr %39, i32 0, i32 1
  %41 = load i8, ptr %40, align 1
  %42 = zext i8 %41 to i32
  %43 = and i32 %42, -2
  %44 = icmp eq i32 %43, 2
  br i1 %44, label %45, label %46

45:                                               ; preds = %38
  br label %53

46:                                               ; preds = %38
  %47 = load ptr, ptr %5, align 8
  %48 = getelementptr inbounds nuw %struct.varattrib_1b_e, ptr %47, i32 0, i32 1
  %49 = load i8, ptr %48, align 1
  %50 = zext i8 %49 to i32
  %51 = icmp eq i32 %50, 18
  %52 = select i1 %51, i64 16, i64 0
  br label %53

53:                                               ; preds = %46, %45
  %54 = phi i64 [ 8, %45 ], [ %52, %46 ]
  br label %55

55:                                               ; preds = %53, %37
  %56 = phi i64 [ 8, %37 ], [ %54, %53 ]
  %57 = add i64 2, %56
  %58 = sub i64 %57, 2
  br label %85

59:                                               ; preds = %1
  %60 = load ptr, ptr %5, align 8
  %61 = getelementptr inbounds nuw %struct.varattrib_1b, ptr %60, i32 0, i32 0
  %62 = load i8, ptr %61, align 1
  %63 = zext i8 %62 to i32
  %64 = and i32 %63, 1
  %65 = icmp eq i32 %64, 1
  br i1 %65, label %66, label %75

66:                                               ; preds = %59
  %67 = load ptr, ptr %5, align 8
  %68 = getelementptr inbounds nuw %struct.varattrib_1b, ptr %67, i32 0, i32 0
  %69 = load i8, ptr %68, align 1
  %70 = zext i8 %69 to i32
  %71 = ashr i32 %70, 1
  %72 = and i32 %71, 127
  %73 = sext i32 %72 to i64
  %74 = sub i64 %73, 1
  br label %83

75:                                               ; preds = %59
  %76 = load ptr, ptr %5, align 8
  %77 = getelementptr inbounds nuw %struct.anon.1, ptr %76, i32 0, i32 0
  %78 = load i32, ptr %77, align 4
  %79 = lshr i32 %78, 2
  %80 = and i32 %79, 1073741823
  %81 = sub i32 %80, 4
  %82 = zext i32 %81 to i64
  br label %83

83:                                               ; preds = %75, %66
  %84 = phi i64 [ %74, %66 ], [ %82, %75 ]
  br label %85

85:                                               ; preds = %83, %55
  %86 = phi i64 [ %58, %55 ], [ %84, %83 ]
  %87 = icmp ule i64 %86, 0
  br i1 %87, label %94, label %88

88:                                               ; preds = %85
  %89 = load i64, ptr %4, align 8
  %90 = icmp eq i64 %89, -9223372036854775808
  br i1 %90, label %94, label %91

91:                                               ; preds = %88
  %92 = load i64, ptr %4, align 8
  %93 = icmp eq i64 %92, 9223372036854775807
  br i1 %93, label %94, label %100

94:                                               ; preds = %91, %88, %85
  br label %95

95:                                               ; preds = %94
  %96 = load ptr, ptr %3, align 8
  %97 = getelementptr inbounds nuw %struct.FunctionCallInfoBaseData, ptr %96, i32 0, i32 4
  store i8 1, ptr %97, align 4
  store i64 0, ptr %2, align 8
  store i32 1, ptr %12, align 4
  br label %206

98:                                               ; No predecessors!
  br label %99

99:                                               ; preds = %98
  br label %100

100:                                              ; preds = %99, %91
  br label %101

101:                                              ; preds = %100
  br label %102

102:                                              ; preds = %101
  %103 = getelementptr inbounds nuw %struct.TmToChar, ptr %7, i32 0, i32 0
  call void @llvm.memset.p0.i64(ptr align 8 %103, i8 0, i64 48, i1 false)
  %104 = getelementptr inbounds nuw %struct.TmToChar, ptr %7, i32 0, i32 0
  %105 = getelementptr inbounds nuw %struct.fmt_tm, ptr %104, i32 0, i32 4
  store i32 1, ptr %105, align 4
  %106 = getelementptr inbounds nuw %struct.TmToChar, ptr %7, i32 0, i32 0
  %107 = getelementptr inbounds nuw %struct.fmt_tm, ptr %106, i32 0, i32 3
  store i32 1, ptr %107, align 8
  br label %108

108:                                              ; preds = %102
  br label %109

109:                                              ; preds = %108
  %110 = getelementptr inbounds nuw %struct.TmToChar, ptr %7, i32 0, i32 1
  store i32 0, ptr %110, align 8
  %111 = getelementptr inbounds nuw %struct.TmToChar, ptr %7, i32 0, i32 2
  store ptr null, ptr %111, align 8
  br label %112

112:                                              ; preds = %109
  br label %113

113:                                              ; preds = %112
  %114 = getelementptr inbounds nuw %struct.TmToChar, ptr %7, i32 0, i32 0
  store ptr %114, ptr %10, align 8
  %115 = load i64, ptr %4, align 8
  %116 = getelementptr inbounds nuw %struct.TmToChar, ptr %7, i32 0, i32 1
  %117 = getelementptr inbounds nuw %struct.TmToChar, ptr %7, i32 0, i32 2
  %118 = call i32 @timestamp2tm(i64 noundef %115, ptr noundef %8, ptr noundef %9, ptr noundef %116, ptr noundef %117, ptr noundef null)
  %119 = icmp ne i32 %118, 0
  br i1 %119, label %120, label %132

120:                                              ; preds = %113
  br label %121

121:                                              ; preds = %120
  br i1 true, label %122, label %124

122:                                              ; preds = %121
  %123 = call zeroext i1 @errstart_cold(i32 noundef 21, ptr noundef null) #12
  br i1 %123, label %126, label %129

124:                                              ; preds = %121
  %125 = call zeroext i1 @errstart(i32 noundef 21, ptr noundef null)
  br i1 %125, label %126, label %129

126:                                              ; preds = %124, %122
  %127 = call i32 @errcode(i32 noundef 134217858)
  %128 = call i32 (ptr, ...) @errmsg(ptr noundef @.str.7)
  call void @errfinish(ptr noundef @.str.3, i32 noundef 4052, ptr noundef @__func__.timestamptz_to_char)
  br label %129

129:                                              ; preds = %126, %124, %122
  unreachable

130:                                              ; No predecessors!
  br label %131

131:                                              ; preds = %130
  br label %132

132:                                              ; preds = %131, %113
  %133 = getelementptr inbounds nuw %struct.pg_tm, ptr %9, i32 0, i32 5
  %134 = load i32, ptr %133, align 4
  %135 = getelementptr inbounds nuw %struct.pg_tm, ptr %9, i32 0, i32 4
  %136 = load i32, ptr %135, align 8
  %137 = getelementptr inbounds nuw %struct.pg_tm, ptr %9, i32 0, i32 3
  %138 = load i32, ptr %137, align 4
  %139 = call i32 @date2j(i32 noundef %134, i32 noundef %136, i32 noundef %138)
  store i32 %139, ptr %11, align 4
  %140 = load i32, ptr %11, align 4
  %141 = add i32 %140, 1
  %142 = srem i32 %141, 7
  %143 = getelementptr inbounds nuw %struct.pg_tm, ptr %9, i32 0, i32 6
  store i32 %142, ptr %143, align 8
  %144 = load i32, ptr %11, align 4
  %145 = getelementptr inbounds nuw %struct.pg_tm, ptr %9, i32 0, i32 5
  %146 = load i32, ptr %145, align 4
  %147 = call i32 @date2j(i32 noundef %146, i32 noundef 1, i32 noundef 1)
  %148 = sub i32 %144, %147
  %149 = add i32 %148, 1
  %150 = getelementptr inbounds nuw %struct.pg_tm, ptr %9, i32 0, i32 7
  store i32 %149, ptr %150, align 4
  br label %151

151:                                              ; preds = %132
  %152 = getelementptr inbounds nuw %struct.pg_tm, ptr %9, i32 0, i32 0
  %153 = load i32, ptr %152, align 8
  %154 = load ptr, ptr %10, align 8
  %155 = getelementptr inbounds nuw %struct.fmt_tm, ptr %154, i32 0, i32 0
  store i32 %153, ptr %155, align 8
  %156 = getelementptr inbounds nuw %struct.pg_tm, ptr %9, i32 0, i32 1
  %157 = load i32, ptr %156, align 4
  %158 = load ptr, ptr %10, align 8
  %159 = getelementptr inbounds nuw %struct.fmt_tm, ptr %158, i32 0, i32 1
  store i32 %157, ptr %159, align 4
  %160 = getelementptr inbounds nuw %struct.pg_tm, ptr %9, i32 0, i32 2
  %161 = load i32, ptr %160, align 8
  %162 = sext i32 %161 to i64
  %163 = load ptr, ptr %10, align 8
  %164 = getelementptr inbounds nuw %struct.fmt_tm, ptr %163, i32 0, i32 2
  store i64 %162, ptr %164, align 8
  %165 = getelementptr inbounds nuw %struct.pg_tm, ptr %9, i32 0, i32 3
  %166 = load i32, ptr %165, align 4
  %167 = load ptr, ptr %10, align 8
  %168 = getelementptr inbounds nuw %struct.fmt_tm, ptr %167, i32 0, i32 3
  store i32 %166, ptr %168, align 8
  %169 = getelementptr inbounds nuw %struct.pg_tm, ptr %9, i32 0, i32 4
  %170 = load i32, ptr %169, align 8
  %171 = load ptr, ptr %10, align 8
  %172 = getelementptr inbounds nuw %struct.fmt_tm, ptr %171, i32 0, i32 4
  store i32 %170, ptr %172, align 4
  %173 = getelementptr inbounds nuw %struct.pg_tm, ptr %9, i32 0, i32 5
  %174 = load i32, ptr %173, align 4
  %175 = load ptr, ptr %10, align 8
  %176 = getelementptr inbounds nuw %struct.fmt_tm, ptr %175, i32 0, i32 5
  store i32 %174, ptr %176, align 8
  %177 = getelementptr inbounds nuw %struct.pg_tm, ptr %9, i32 0, i32 6
  %178 = load i32, ptr %177, align 8
  %179 = load ptr, ptr %10, align 8
  %180 = getelementptr inbounds nuw %struct.fmt_tm, ptr %179, i32 0, i32 6
  store i32 %178, ptr %180, align 4
  %181 = getelementptr inbounds nuw %struct.pg_tm, ptr %9, i32 0, i32 7
  %182 = load i32, ptr %181, align 4
  %183 = load ptr, ptr %10, align 8
  %184 = getelementptr inbounds nuw %struct.fmt_tm, ptr %183, i32 0, i32 7
  store i32 %182, ptr %184, align 8
  %185 = getelementptr inbounds nuw %struct.pg_tm, ptr %9, i32 0, i32 9
  %186 = load i64, ptr %185, align 8
  %187 = load ptr, ptr %10, align 8
  %188 = getelementptr inbounds nuw %struct.fmt_tm, ptr %187, i32 0, i32 8
  store i64 %186, ptr %188, align 8
  br label %189

189:                                              ; preds = %151
  br label %190

190:                                              ; preds = %189
  %191 = load ptr, ptr %5, align 8
  %192 = load ptr, ptr %3, align 8
  %193 = getelementptr inbounds nuw %struct.FunctionCallInfoBaseData, ptr %192, i32 0, i32 3
  %194 = load i32, ptr %193, align 8
  %195 = call ptr @datetime_to_char_body(ptr noundef %7, ptr noundef %191, i1 noundef zeroext false, i32 noundef %194)
  store ptr %195, ptr %6, align 8
  %196 = icmp ne ptr %195, null
  br i1 %196, label %203, label %197

197:                                              ; preds = %190
  br label %198

198:                                              ; preds = %197
  %199 = load ptr, ptr %3, align 8
  %200 = getelementptr inbounds nuw %struct.FunctionCallInfoBaseData, ptr %199, i32 0, i32 4
  store i8 1, ptr %200, align 4
  store i64 0, ptr %2, align 8
  store i32 1, ptr %12, align 4
  br label %206

201:                                              ; No predecessors!
  br label %202

202:                                              ; preds = %201
  br label %203

203:                                              ; preds = %202, %190
  %204 = load ptr, ptr %6, align 8
  %205 = call i64 @PointerGetDatum(ptr noundef %204)
  store i64 %205, ptr %2, align 8
  store i32 1, ptr %12, align 4
  br label %206

206:                                              ; preds = %203, %198, %95
  call void @llvm.lifetime.end.p0(i64 4, ptr %11) #11
  call void @llvm.lifetime.end.p0(i64 8, ptr %10) #11
  call void @llvm.lifetime.end.p0(i64 56, ptr %9) #11
  call void @llvm.lifetime.end.p0(i64 4, ptr %8) #11
  call void @llvm.lifetime.end.p0(i64 64, ptr %7) #11
  call void @llvm.lifetime.end.p0(i64 8, ptr %6) #11
  call void @llvm.lifetime.end.p0(i64 8, ptr %5) #11
  call void @llvm.lifetime.end.p0(i64 8, ptr %4) #11
  %207 = load i64, ptr %2, align 8
  ret i64 %207
}