; Function Attrs: nounwind uwtable
define dso_local i64 @timestamptz_to_char(ptr noundef captures(none) %0) local_unnamed_addr #0 {
  %2 = alloca %struct.TmToChar, align 8
  %3 = alloca i32, align 4
  %4 = alloca %struct.pg_tm, align 8
  %5 = getelementptr inbounds nuw i8, ptr %0, i64 32
  %6 = load i64, ptr %5, align 8
  %7 = getelementptr inbounds nuw i8, ptr %0, i64 48
  %8 = load i64, ptr %7, align 8
  %9 = inttoptr i64 %8 to ptr
  %10 = tail call ptr @pg_detoast_datum_packed(ptr noundef %9) #18
  call void @llvm.lifetime.start.p0(i64 64, ptr nonnull %2) #18
  call void @llvm.lifetime.start.p0(i64 4, ptr nonnull %3) #18
  call void @llvm.lifetime.start.p0(i64 56, ptr nonnull %4) #18
  %11 = load i8, ptr %10, align 1
  %12 = zext i8 %11 to i32
  %13 = icmp eq i8 %11, 1
  br i1 %13, label %14, label %23

14:                                               ; preds = %1
  %15 = getelementptr inbounds nuw i8, ptr %10, i64 1
  %16 = load i8, ptr %15, align 1
  %17 = icmp eq i8 %16, 1
  %18 = and i8 %16, -2
  %19 = icmp eq i8 %18, 2
  %or.cond = or i1 %17, %19
  %20 = icmp eq i8 %16, 18
  %21 = select i1 %20, i64 16, i64 0
  %22 = select i1 %or.cond, i64 8, i64 %21
  br label %34

23:                                               ; preds = %1
  %24 = and i32 %12, 1
  %.not = icmp eq i32 %24, 0
  br i1 %.not, label %29, label %25

25:                                               ; preds = %23
  %26 = lshr i32 %12, 1
  %27 = zext nneg i32 %26 to i64
  %28 = add nsw i64 %27, -1
  br label %34

29:                                               ; preds = %23
  %30 = load i32, ptr %10, align 4
  %31 = lshr i32 %30, 2
  %32 = add nsw i32 %31, -4
  %33 = zext i32 %32 to i64
  br label %34

34:                                               ; preds = %25, %29, %14
  %35 = phi i64 [ %22, %14 ], [ %28, %25 ], [ %33, %29 ]
  %36 = icmp eq i64 %35, 0
  %37 = add i64 %6, -9223372036854775807
  %38 = icmp ult i64 %37, 2
  %or.cond3 = select i1 %36, i1 true, i1 %38
  br i1 %or.cond3, label %39, label %41

39:                                               ; preds = %34
  %40 = getelementptr inbounds nuw i8, ptr %0, i64 28
  store i8 1, ptr %40, align 4
  br label %92

41:                                               ; preds = %34
  call void @llvm.memset.p0.i64(ptr noundef nonnull align 8 dereferenceable(48) %2, i8 0, i64 48, i1 false)
  %42 = getelementptr inbounds nuw i8, ptr %2, i64 20
  store i32 1, ptr %42, align 4
  %43 = getelementptr inbounds nuw i8, ptr %2, i64 16
  store i32 1, ptr %43, align 8
  %44 = getelementptr inbounds nuw i8, ptr %2, i64 48
  store i32 0, ptr %44, align 8
  %45 = getelementptr inbounds nuw i8, ptr %2, i64 56
  store ptr null, ptr %45, align 8
  %46 = call i32 @timestamp2tm(i64 noundef %6, ptr noundef nonnull %3, ptr noundef nonnull %4, ptr noundef nonnull %44, ptr noundef nonnull %45, ptr noundef null) #18
  %.not35 = icmp eq i32 %46, 0
  br i1 %.not35, label %51, label %47

47:                                               ; preds = %41
  %48 = call zeroext i1 @errstart_cold(i32 noundef 21, ptr noundef null) #17
  call void @llvm.assume(i1 %48)
  %49 = call i32 @errcode(i32 noundef 134217858) #18
  %50 = call i32 (ptr, ...) @errmsg(ptr noundef nonnull @.str.7) #18
  call void @errfinish(ptr noundef nonnull @.str.3, i32 noundef 4052, ptr noundef nonnull @__func__.timestamptz_to_char) #18
  unreachable

51:                                               ; preds = %41
  %52 = getelementptr inbounds nuw i8, ptr %4, i64 20
  %53 = load i32, ptr %52, align 4
  %54 = getelementptr inbounds nuw i8, ptr %4, i64 16
  %55 = load i32, ptr %54, align 8
  %56 = getelementptr inbounds nuw i8, ptr %4, i64 12
  %57 = load i32, ptr %56, align 4
  %58 = call i32 @date2j(i32 noundef %53, i32 noundef %55, i32 noundef %57) #18
  %59 = add i32 %58, 1
  %60 = srem i32 %59, 7
  %61 = getelementptr inbounds nuw i8, ptr %4, i64 24
  store i32 %60, ptr %61, align 8
  %62 = load i32, ptr %52, align 4
  %63 = call i32 @date2j(i32 noundef %62, i32 noundef 1, i32 noundef 1) #18
  %64 = sub i32 %58, %63
  %65 = add i32 %64, 1
  %66 = getelementptr inbounds nuw i8, ptr %4, i64 28
  store i32 %65, ptr %66, align 4
  %67 = load i32, ptr %4, align 8
  store i32 %67, ptr %2, align 8
  %68 = getelementptr inbounds nuw i8, ptr %4, i64 4
  %69 = load i32, ptr %68, align 4
  %70 = getelementptr inbounds nuw i8, ptr %2, i64 4
  store i32 %69, ptr %70, align 4
  %71 = getelementptr inbounds nuw i8, ptr %4, i64 8
  %72 = load i32, ptr %71, align 8
  %73 = sext i32 %72 to i64
  %74 = getelementptr inbounds nuw i8, ptr %2, i64 8
  store i64 %73, ptr %74, align 8
  %75 = load i32, ptr %56, align 4
  store i32 %75, ptr %43, align 8
  %76 = load i32, ptr %54, align 8
  store i32 %76, ptr %42, align 4
  %77 = load i32, ptr %52, align 4
  %78 = getelementptr inbounds nuw i8, ptr %2, i64 24
  store i32 %77, ptr %78, align 8
  %79 = load i32, ptr %61, align 8
  %80 = getelementptr inbounds nuw i8, ptr %2, i64 28
  store i32 %79, ptr %80, align 4
  %81 = getelementptr inbounds nuw i8, ptr %2, i64 32
  store i32 %65, ptr %81, align 8
  %82 = getelementptr inbounds nuw i8, ptr %4, i64 40
  %83 = load i64, ptr %82, align 8
  %84 = getelementptr inbounds nuw i8, ptr %2, i64 40
  store i64 %83, ptr %84, align 8
  %85 = getelementptr inbounds nuw i8, ptr %0, i64 24
  %86 = load i32, ptr %85, align 8
  %87 = call fastcc ptr @datetime_to_char_body(ptr noundef %2, ptr noundef nonnull %10, i1 noundef zeroext false, i32 noundef %86)
  %.not36 = icmp eq ptr %87, null
  br i1 %.not36, label %88, label %90

88:                                               ; preds = %51
  %89 = getelementptr inbounds nuw i8, ptr %0, i64 28
  store i8 1, ptr %89, align 4
  br label %92

90:                                               ; preds = %51
  %91 = ptrtoint ptr %87 to i64
  br label %92

92:                                               ; preds = %90, %88, %39
  %.0 = phi i64 [ 0, %39 ], [ %91, %90 ], [ 0, %88 ]
  call void @llvm.lifetime.end.p0(i64 56, ptr nonnull %4) #18
  call void @llvm.lifetime.end.p0(i64 4, ptr nonnull %3) #18
  call void @llvm.lifetime.end.p0(i64 64, ptr nonnull %2) #18
  ret i64 %.0
}